target datalayout = "e-m:e-p270:32:32-p271:32:32-p272:64:64-i64:64-i128:128-f80:128-n8:16:32:64-S128"
target triple = "x86_64-pc-linux-gnu"

%"class.cv::Size_" = type { i32, i32 }
%"class.cv::gapi::oak::OAKMediaAdapter" = type { %"class.cv::MediaFrame::IAdapter", %"class.cv::Size_", i32, %"class.std::vector" }
%"class.cv::MediaFrame::IAdapter" = type { ptr }
%"class.std::vector" = type { %"struct.std::_Vector_base" }
%"struct.std::_Vector_base" = type { %"struct.std::_Vector_base<unsigned char, std::allocator<unsigned char>>::_Vector_impl" }
%"struct.std::_Vector_base<unsigned char, std::allocator<unsigned char>>::_Vector_impl" = type { %"struct.std::_Vector_base<unsigned char, std::allocator<unsigned char>>::_Vector_impl_data" }
%"struct.std::_Vector_base<unsigned char, std::allocator<unsigned char>>::_Vector_impl_data" = type { ptr, ptr, ptr }
%"struct.cv::GFrameDesc" = type { i32, %"class.cv::Size_" }

; Function Attrs: mustprogress nounwind uwtable
define { i64, i32 } @_ZNK2cv4gapi3oak15OAKMediaAdapter4metaEv(ptr noundef nonnull align 8 dereferenceable(48) %0) unnamed_addr #1 align 2 {
  %2 = alloca %"struct.cv::GFrameDesc", align 4
  %3 = alloca ptr, align 8
  %4 = alloca { i64, i32 }, align 8
  store ptr %0, ptr %3, align 8
  %5 = load ptr, ptr %3, align 8
  %6 = getelementptr inbounds %"struct.cv::GFrameDesc", ptr %2, i32 0, i32 0
  %7 = getelementptr inbounds %"class.cv::gapi::oak::OAKMediaAdapter", ptr %5, i32 0, i32 2
  %8 = load i32, ptr %7, align 8
  store i32 %8, ptr %6, align 4
  %9 = getelementptr inbounds %"struct.cv::GFrameDesc", ptr %2, i32 0, i32 1
  %10 = getelementptr inbounds %"class.cv::gapi::oak::OAKMediaAdapter", ptr %5, i32 0, i32 1
  call void @llvm.memcpy.p0.p0.i64(ptr align 4 %9, ptr align 8 %10, i64 8, i1 false)
  call void @llvm.memcpy.p0.p0.i64(ptr align 8 %4, ptr align 4 %2, i64 12, i1 false)
  %11 = load { i64, i32 }, ptr %4, align 8
  ret { i64, i32 } %11
}