; Function Attrs: mustprogress nofree norecurse nosync nounwind willreturn memory(argmem: read) uwtable
define { i64, i32 } @_ZNK2cv4gapi3oak15OAKMediaAdapter4metaEv(ptr nocapture noundef nonnull readonly align 8 dereferenceable(48) %0) unnamed_addr #5 align 2 {
  %2 = getelementptr inbounds i8, ptr %0, i64 16
  %3 = load i32, ptr %2, align 8
  %4 = getelementptr inbounds i8, ptr %0, i64 8
  %.sroa.01.sroa.2.4.copyload = load i32, ptr %4, align 8
  %.sroa.3.4..sroa_idx = getelementptr inbounds i8, ptr %0, i64 12
  %.sroa.3.4.copyload = load i32, ptr %.sroa.3.4..sroa_idx, align 4
  %.sroa.01.sroa.2.0.insert.ext = zext i32 %.sroa.01.sroa.2.4.copyload to i64
  %.sroa.01.sroa.2.0.insert.shift = shl nuw i64 %.sroa.01.sroa.2.0.insert.ext, 32
  %.sroa.01.sroa.0.0.insert.ext = zext i32 %3 to i64
  %.sroa.01.sroa.0.0.insert.insert = or disjoint i64 %.sroa.01.sroa.2.0.insert.shift, %.sroa.01.sroa.0.0.insert.ext
  %.fca.0.insert = insertvalue { i64, i32 } poison, i64 %.sroa.01.sroa.0.0.insert.insert, 0
  %.fca.1.insert = insertvalue { i64, i32 } %.fca.0.insert, i32 %.sroa.3.4.copyload, 1
  ret { i64, i32 } %.fca.1.insert
}